; Function Attrs: nounwind uwtable
define dso_local void @manifest_files_stat(ptr noundef readonly captures(none) %0) local_unnamed_addr #0 {
  %2 = load i64, ptr %0, align 8
  %3 = shl i64 %2, 2
  %4 = tail call ptr @palloc0(i64 noundef %3) #22
  %5 = load i64, ptr %0, align 8
  %.not81 = icmp eq i64 %5, 0
  br i1 %.not81, label %._crit_edge, label %.lr.ph

.lr.ph:                                           ; preds = %1
  %6 = getelementptr inbounds nuw i8, ptr %0, i64 24
  %7 = getelementptr i8, ptr %0, i64 12
  br label %8

.preheader:                                       ; preds = %24
  %.not82 = icmp eq i64 %25, 0
  br i1 %.not82, label %._crit_edge, label %.lr.ph78

8:                                                ; preds = %.lr.ph, %24
  %9 = phi i64 [ %5, %.lr.ph ], [ %25, %24 ]
  %10 = phi i64 [ 0, %.lr.ph ], [ %27, %24 ]
  %.072 = phi i32 [ 0, %.lr.ph ], [ %.1, %24 ]
  %.04971 = phi i32 [ 0, %.lr.ph ], [ %.150, %24 ]
  %.05970 = phi i32 [ 0, %.lr.ph ], [ %26, %24 ]
  %11 = load ptr, ptr %6, align 8
  %12 = getelementptr inbounds nuw %struct.manifest_file, ptr %11, i64 %10
  %13 = load i32, ptr %12, align 8
  %.not67 = icmp eq i32 %13, 1
  br i1 %.not67, label %manifest_files_distance.exit, label %24

manifest_files_distance.exit:                     ; preds = %8
  %14 = getelementptr i8, ptr %12, i64 8
  %.val = load ptr, ptr %14, align 8
  %15 = tail call fastcc i32 @hash_string(ptr noundef readonly %.val)
  %.val69 = load i32, ptr %7, align 4
  %16 = and i32 %.val69, %15
  %.not.i = icmp ugt i32 %16, %.05970
  %17 = trunc i64 %9 to i32
  %18 = select i1 %.not.i, i32 %17, i32 0
  %.pn.i = sub i32 %.05970, %16
  %.0.i = add i32 %.pn.i, %18
  %spec.select = tail call i32 @llvm.umax.i32(i32 %.0.i, i32 %.072)
  %19 = add i32 %.0.i, %.04971
  %20 = zext i32 %16 to i64
  %21 = getelementptr inbounds nuw i32, ptr %4, i64 %20
  %22 = load i32, ptr %21, align 4
  %23 = add i32 %22, 1
  store i32 %23, ptr %21, align 4
  %.pre = load i64, ptr %0, align 8
  br label %24

24:                                               ; preds = %8, %manifest_files_distance.exit
  %25 = phi i64 [ %.pre, %manifest_files_distance.exit ], [ %9, %8 ]
  %.150 = phi i32 [ %19, %manifest_files_distance.exit ], [ %.04971, %8 ]
  %.1 = phi i32 [ %spec.select, %manifest_files_distance.exit ], [ %.072, %8 ]
  %26 = add i32 %.05970, 1
  %27 = zext i32 %26 to i64
  %28 = icmp ugt i64 %25, %27
  br i1 %28, label %8, label %.preheader, !llvm.loop !13

.lr.ph78:                                         ; preds = %.preheader, %.lr.ph78
  %29 = phi i64 [ %36, %.lr.ph78 ], [ 0, %.preheader ]
  %.05477 = phi i32 [ %.155, %.lr.ph78 ], [ 0, %.preheader ]
  %.05776 = phi i32 [ %.158, %.lr.ph78 ], [ 0, %.preheader ]
  %.16075 = phi i32 [ %35, %.lr.ph78 ], [ 0, %.preheader ]
  %30 = getelementptr inbounds nuw i32, ptr %4, i64 %29
  %31 = load i32, ptr %30, align 4
  %32 = icmp eq i32 %31, 0
  %33 = add i32 %31, -1
  %spec.select68 = tail call i32 @llvm.umax.i32(i32 %33, i32 %.05477)
  %34 = tail call i32 @llvm.usub.sat.i32(i32 %31, i32 1)
  %.158 = add i32 %34, %.05776
  %.155 = select i1 %32, i32 %.05477, i32 %spec.select68
  %35 = add i32 %.16075, 1
  %36 = zext i32 %35 to i64
  %37 = icmp ugt i64 %25, %36
  br i1 %37, label %.lr.ph78, label %._crit_edge, !llvm.loop !14

._crit_edge:                                      ; preds = %.lr.ph78, %1, %.preheader
  %.0.lcssa90 = phi i32 [ %.1, %.preheader ], [ 0, %1 ], [ %.1, %.lr.ph78 ]
  %.049.lcssa89 = phi i32 [ %.150, %.preheader ], [ 0, %1 ], [ %.150, %.lr.ph78 ]
  %.057.lcssa = phi i32 [ 0, %.preheader ], [ 0, %1 ], [ %.158, %.lr.ph78 ]
  %.054.lcssa = phi i32 [ 0, %.preheader ], [ 0, %1 ], [ %.155, %.lr.ph78 ]
  tail call void @pfree(ptr noundef %4) #22
  %38 = getelementptr inbounds nuw i8, ptr %0, i64 8
  %39 = load i32, ptr %38, align 8
  %.not = icmp eq i32 %39, 0
  %.pre84 = load i64, ptr %0, align 8
  br i1 %.not, label %48, label %40

40:                                               ; preds = %._crit_edge
  %41 = uitofp i32 %39 to double
  %42 = uitofp i64 %.pre84 to double
  %43 = fdiv double %41, %42
  %44 = uitofp i32 %.049.lcssa89 to double
  %45 = fdiv double %44, %41
  %46 = uitofp i32 %.057.lcssa to double
  %47 = fdiv double %46, %41
  br label %48

48:                                               ; preds = %._crit_edge, %40
  %.053 = phi double [ %47, %40 ], [ 0.000000e+00, %._crit_edge ]
  %.052 = phi double [ %43, %40 ], [ 0.000000e+00, %._crit_edge ]
  %.051 = phi double [ %45, %40 ], [ 0.000000e+00, %._crit_edge ]
  tail call void (i32, i32, ptr, ...) @pg_log_generic(i32 noundef 2, i32 noundef 0, ptr noundef nonnull @.str, i64 noundef %.pre84, i32 noundef %39, double noundef %.052, i32 noundef %.049.lcssa89, i32 noundef %.0.lcssa90, double noundef %.051, i32 noundef %.057.lcssa, i32 noundef %.054.lcssa, double noundef %.053) #22
  ret void
}